target datalayout = "e-m:e-p270:32:32-p271:32:32-p272:64:64-i64:64-i128:128-f80:128-n8:16:32:64-S128"
target triple = "x86_64-pc-linux-gnu"

%struct.expert_field = type { i32, i32 }
%struct._value_string_ext = type { ptr, i32, i32, ptr, ptr }
%struct._asn1_ctx_t = type { i32, i32, i8, ptr, ptr, ptr, ptr, ptr, %struct.anon, %struct.anon.2, %struct.anon.3, ptr }
%struct.anon = type { i32, i8, i8, i8, ptr, ptr, i32, i32, ptr, ptr, ptr, %union.anon }
%union.anon = type { %struct.anon.0 }
%struct.anon.0 = type { ptr }
%struct.anon.2 = type { ptr, ptr, ptr }
%struct.anon.3 = type { i32, i8, ptr, i32, i32, ptr, ptr, ptr, %union.anon.4 }
%union.anon.4 = type { %struct.anon.5 }
%struct.anon.5 = type { ptr }

@ei_ber_wrong_tag_in_tagged_type = internal global %struct.expert_field zeroinitializer, align 4
@.str.2 = private unnamed_addr constant [102 x i8] c"BER Error: Wrong tag in tagged type - expected class:%s(%d) tag:%d (%s) but found class:%s(%d) tag:%d\00", align 1
@.str.3 = private unnamed_addr constant [8 x i8] c"Unknown\00", align 1
@ber_uni_tag_codes_ext = internal global %struct._value_string_ext { ptr @_try_val_to_str_ext_init, i32 0, i32 32, ptr @ber_uni_tag_codes, ptr @.str.313 }, align 8

; Function Attrs: null_pointer_is_valid sspstrong uwtable
define internal ptr @ber_tvb_new_subset_length(ptr noundef %0, i32 noundef %1, i32 noundef %2) #0 {
  %4 = alloca ptr, align 8
  %5 = alloca i32, align 4
  %6 = alloca i32, align 4
  %7 = alloca i32, align 4
  store ptr %0, ptr %4, align 8
  store i32 %1, ptr %5, align 4
  store i32 %2, ptr %6, align 4
  call void @llvm.lifetime.start.p0(i64 4, ptr %7) #12
  %8 = load ptr, ptr %4, align 8
  %9 = load i32, ptr %5, align 4
  %10 = call i32 @tvb_reported_length_remaining(ptr noundef %8, i32 noundef %9)
  store i32 %10, ptr %7, align 4
  %11 = load ptr, ptr %4, align 8
  %12 = load i32, ptr %5, align 4
  %13 = load i32, ptr %7, align 4
  %14 = load i32, ptr %6, align 4
  %15 = icmp sgt i32 %13, %14
  br i1 %15, label %16, label %18

16:                                               ; preds = %3
  %17 = load i32, ptr %6, align 4
  br label %20

18:                                               ; preds = %3
  %19 = load i32, ptr %7, align 4
  br label %20

20:                                               ; preds = %18, %16
  %21 = phi i32 [ %17, %16 ], [ %19, %18 ]
  %22 = call ptr @tvb_new_subset_length(ptr noundef %11, i32 noundef %12, i32 noundef %21)
  call void @llvm.lifetime.end.p0(i64 4, ptr %7) #12
  ret ptr %22
}

; Function Attrs: null_pointer_is_valid sspstrong uwtable
define i32 @dissect_ber_tagged_type(i1 noundef zeroext %0, ptr noundef %1, ptr noundef %2, ptr noundef %3, i32 noundef %4, i32 noundef %5, i8 noundef signext %6, i32 noundef %7, i1 noundef zeroext %8, ptr noundef %9) #0 {
  %11 = alloca i32, align 4
  %12 = alloca i8, align 1
  %13 = alloca ptr, align 8
  %14 = alloca ptr, align 8
  %15 = alloca ptr, align 8
  %16 = alloca i32, align 4
  %17 = alloca i32, align 4
  %18 = alloca i8, align 1
  %19 = alloca i32, align 4
  %20 = alloca i8, align 1
  %21 = alloca ptr, align 8
  %22 = alloca i8, align 1
  %23 = alloca i32, align 4
  %24 = alloca i32, align 4
  %25 = alloca i32, align 4
  %26 = alloca i32, align 4
  %27 = alloca ptr, align 8
  %28 = alloca i32, align 4
  %29 = zext i1 %0 to i8
  store i8 %29, ptr %12, align 1
  store ptr %1, ptr %13, align 8
  store ptr %2, ptr %14, align 8
  store ptr %3, ptr %15, align 8
  store i32 %4, ptr %16, align 4
  store i32 %5, ptr %17, align 4
  store i8 %6, ptr %18, align 1
  store i32 %7, ptr %19, align 4
  %30 = zext i1 %8 to i8
  store i8 %30, ptr %20, align 1
  store ptr %9, ptr %21, align 8
  call void @llvm.lifetime.start.p0(i64 1, ptr %22) #12
  call void @llvm.lifetime.start.p0(i64 4, ptr %23) #12
  call void @llvm.lifetime.start.p0(i64 4, ptr %24) #12
  call void @llvm.lifetime.start.p0(i64 4, ptr %25) #12
  call void @llvm.lifetime.start.p0(i64 4, ptr %26) #12
  call void @llvm.lifetime.start.p0(i64 8, ptr %27) #12
  %31 = load ptr, ptr %15, align 8
  store ptr %31, ptr %27, align 8
  %32 = load i8, ptr %12, align 1, !range !6, !noundef !7
  %33 = trunc i8 %32 to i1
  br i1 %33, label %34, label %45

34:                                               ; preds = %10
  %35 = load ptr, ptr %21, align 8
  %36 = load i8, ptr %20, align 1, !range !6, !noundef !7
  %37 = trunc i8 %36 to i1
  %38 = load ptr, ptr %15, align 8
  %39 = load i32, ptr %16, align 4
  %40 = load ptr, ptr %13, align 8
  %41 = load ptr, ptr %14, align 8
  %42 = load i32, ptr %17, align 4
  %43 = call i32 %35(i1 noundef zeroext %37, ptr noundef %38, i32 noundef %39, ptr noundef %40, ptr noundef %41, i32 noundef %42)
  store i32 %43, ptr %16, align 4
  %44 = load i32, ptr %16, align 4
  store i32 %44, ptr %11, align 4
  store i32 1, ptr %28, align 4
  br label %127

45:                                               ; preds = %10
  %46 = load i32, ptr %16, align 4
  store i32 %46, ptr %24, align 4
  %47 = load ptr, ptr %13, align 8
  %48 = getelementptr inbounds nuw %struct._asn1_ctx_t, ptr %47, i32 0, i32 3
  %49 = load ptr, ptr %48, align 8
  %50 = load ptr, ptr %14, align 8
  %51 = load ptr, ptr %15, align 8
  %52 = load i32, ptr %16, align 4
  %53 = call i32 @dissect_ber_identifier(ptr noundef %49, ptr noundef %50, ptr noundef %51, i32 noundef %52, ptr noundef %22, ptr noundef null, ptr noundef %23)
  store i32 %53, ptr %16, align 4
  %54 = load i32, ptr %16, align 4
  %55 = load i32, ptr %24, align 4
  %56 = sub i32 %54, %55
  store i32 %56, ptr %25, align 4
  %57 = load ptr, ptr %13, align 8
  %58 = getelementptr inbounds nuw %struct._asn1_ctx_t, ptr %57, i32 0, i32 3
  %59 = load ptr, ptr %58, align 8
  %60 = load ptr, ptr %14, align 8
  %61 = load ptr, ptr %15, align 8
  %62 = load i32, ptr %16, align 4
  %63 = call i32 @dissect_ber_length(ptr noundef %59, ptr noundef %60, ptr noundef %61, i32 noundef %62, ptr noundef %26, ptr noundef null)
  store i32 %63, ptr %16, align 4
  %64 = load i8, ptr %22, align 1
  %65 = sext i8 %64 to i32
  %66 = load i8, ptr %18, align 1
  %67 = sext i8 %66 to i32
  %68 = icmp ne i32 %65, %67
  br i1 %68, label %73, label %69

69:                                               ; preds = %45
  %70 = load i32, ptr %23, align 4
  %71 = load i32, ptr %19, align 4
  %72 = icmp ne i32 %70, %71
  br i1 %72, label %73, label %96

73:                                               ; preds = %69, %45
  %74 = load ptr, ptr %14, align 8
  %75 = load ptr, ptr %13, align 8
  %76 = getelementptr inbounds nuw %struct._asn1_ctx_t, ptr %75, i32 0, i32 3
  %77 = load ptr, ptr %76, align 8
  %78 = load ptr, ptr %15, align 8
  %79 = load i32, ptr %24, align 4
  %80 = load i32, ptr %25, align 4
  %81 = load i8, ptr %18, align 1
  %82 = sext i8 %81 to i32
  %83 = call ptr @val_to_str_const(i32 noundef %82, ptr noundef @ber_class_codes, ptr noundef @.str.3)
  %84 = load i8, ptr %18, align 1
  %85 = sext i8 %84 to i32
  %86 = load i32, ptr %19, align 4
  %87 = load i32, ptr %19, align 4
  %88 = call ptr @val_to_str_ext_const(i32 noundef %87, ptr noundef @ber_uni_tag_codes_ext, ptr noundef @.str.3)
  %89 = load i8, ptr %22, align 1
  %90 = sext i8 %89 to i32
  %91 = call ptr @val_to_str_const(i32 noundef %90, ptr noundef @ber_class_codes, ptr noundef @.str.3)
  %92 = load i8, ptr %22, align 1
  %93 = sext i8 %92 to i32
  %94 = load i32, ptr %23, align 4
  %95 = call ptr (ptr, ptr, ptr, ptr, i32, i32, ptr, ...) @proto_tree_add_expert_format(ptr noundef %74, ptr noundef %77, ptr noundef @ei_ber_wrong_tag_in_tagged_type, ptr noundef %78, i32 noundef %79, i32 noundef %80, ptr noundef @.str.2, ptr noundef %83, i32 noundef %85, i32 noundef %86, ptr noundef %88, ptr noundef %91, i32 noundef %93, i32 noundef %94)
  br label %96

96:                                               ; preds = %73, %69
  %97 = load i8, ptr %20, align 1, !range !6, !noundef !7
  %98 = trunc i8 %97 to i1
  br i1 %98, label %99, label %115

99:                                               ; preds = %96
  %100 = load ptr, ptr %15, align 8
  %101 = load i32, ptr %16, align 4
  %102 = load i32, ptr %26, align 4
  %103 = call ptr @ber_tvb_new_subset_length(ptr noundef %100, i32 noundef %101, i32 noundef %102)
  store ptr %103, ptr %27, align 8
  %104 = load ptr, ptr %21, align 8
  %105 = load i8, ptr %20, align 1, !range !6, !noundef !7
  %106 = trunc i8 %105 to i1
  %107 = load ptr, ptr %27, align 8
  %108 = load ptr, ptr %13, align 8
  %109 = load ptr, ptr %14, align 8
  %110 = load i32, ptr %17, align 4
  %111 = call i32 %104(i1 noundef zeroext %106, ptr noundef %107, i32 noundef 0, ptr noundef %108, ptr noundef %109, i32 noundef %110)
  %112 = load i32, ptr %26, align 4
  %113 = load i32, ptr %16, align 4
  %114 = add i32 %113, %112
  store i32 %114, ptr %16, align 4
  br label %125

115:                                              ; preds = %96
  %116 = load ptr, ptr %21, align 8
  %117 = load i8, ptr %20, align 1, !range !6, !noundef !7
  %118 = trunc i8 %117 to i1
  %119 = load ptr, ptr %15, align 8
  %120 = load i32, ptr %16, align 4
  %121 = load ptr, ptr %13, align 8
  %122 = load ptr, ptr %14, align 8
  %123 = load i32, ptr %17, align 4
  %124 = call i32 %116(i1 noundef zeroext %118, ptr noundef %119, i32 noundef %120, ptr noundef %121, ptr noundef %122, i32 noundef %123)
  store i32 %124, ptr %16, align 4
  br label %125

125:                                              ; preds = %115, %99
  %126 = load i32, ptr %16, align 4
  store i32 %126, ptr %11, align 4
  store i32 1, ptr %28, align 4
  br label %127

127:                                              ; preds = %125, %34
  call void @llvm.lifetime.end.p0(i64 8, ptr %27) #12
  call void @llvm.lifetime.end.p0(i64 4, ptr %26) #12
  call void @llvm.lifetime.end.p0(i64 4, ptr %25) #12
  call void @llvm.lifetime.end.p0(i64 4, ptr %24) #12
  call void @llvm.lifetime.end.p0(i64 4, ptr %23) #12
  call void @llvm.lifetime.end.p0(i64 1, ptr %22) #12
  %128 = load i32, ptr %11, align 4
  ret i32 %128
}