; Function Attrs: null_pointer_is_valid sspstrong uwtable
define i32 @dissect_ber_tagged_type(i1 noundef zeroext %0, ptr noundef %1, ptr noundef %2, ptr noundef %3, i32 noundef %4, i32 noundef %5, i8 noundef signext %6, i32 noundef %7, i1 noundef zeroext %8, ptr noundef readonly captures(none) %9) local_unnamed_addr #0 {
  %11 = alloca i8, align 1
  %12 = alloca i32, align 4
  %13 = alloca i32, align 4
  call void @llvm.lifetime.start.p0(i64 1, ptr nonnull %11) #14
  call void @llvm.lifetime.start.p0(i64 4, ptr nonnull %12) #14
  call void @llvm.lifetime.start.p0(i64 4, ptr nonnull %13) #14
  br i1 %0, label %14, label %16

14:                                               ; preds = %10
  %15 = tail call i32 %9(i1 noundef zeroext %8, ptr noundef %3, i32 noundef %4, ptr noundef %1, ptr noundef %2, i32 noundef %5)
  br label %46

16:                                               ; preds = %10
  %17 = call i32 @dissect_ber_identifier(ptr poison, ptr noundef %2, ptr noundef %3, i32 noundef %4, ptr noundef nonnull %11, ptr noundef null, ptr noundef nonnull %12)
  %18 = call i32 @dissect_ber_length(ptr poison, ptr noundef %2, ptr noundef %3, i32 noundef %17, ptr noundef nonnull %13, ptr noundef null)
  %19 = load i8, ptr %11, align 1
  %.not = icmp eq i8 %19, %6
  %20 = load i32, ptr %12, align 4
  %.not52 = icmp eq i32 %20, %7
  %or.cond = select i1 %.not, i1 %.not52, i1 false
  br i1 %or.cond, label %35, label %21

21:                                               ; preds = %16
  %22 = getelementptr inbounds nuw i8, ptr %1, i64 16
  %23 = sext i8 %6 to i32
  %24 = sub i32 %17, %4
  %25 = load ptr, ptr %22, align 8
  %26 = call ptr @val_to_str_const(i32 noundef %23, ptr noundef nonnull @ber_class_codes, ptr noundef nonnull @.str.3)
  %27 = call ptr @val_to_str_ext_const(i32 noundef %7, ptr noundef nonnull @ber_uni_tag_codes_ext, ptr noundef nonnull @.str.3)
  %28 = load i8, ptr %11, align 1
  %29 = sext i8 %28 to i32
  %30 = call ptr @val_to_str_const(i32 noundef %29, ptr noundef nonnull @ber_class_codes, ptr noundef nonnull @.str.3)
  %31 = load i8, ptr %11, align 1
  %32 = sext i8 %31 to i32
  %33 = load i32, ptr %12, align 4
  %34 = call ptr (ptr, ptr, ptr, ptr, i32, i32, ptr, ...) @proto_tree_add_expert_format(ptr noundef %2, ptr noundef %25, ptr noundef nonnull @ei_ber_wrong_tag_in_tagged_type, ptr noundef %3, i32 noundef %4, i32 noundef %24, ptr noundef nonnull @.str.2, ptr noundef %26, i32 noundef %23, i32 noundef %7, ptr noundef %27, ptr noundef %30, i32 noundef %32, i32 noundef %33)
  br label %35

35:                                               ; preds = %16, %21
  br i1 %8, label %36, label %44

36:                                               ; preds = %35
  %37 = load i32, ptr %13, align 4
  %38 = call i32 @tvb_reported_length_remaining(ptr noundef %3, i32 noundef %18)
  %39 = call i32 @llvm.smin.i32(i32 %38, i32 %37)
  %40 = call ptr @tvb_new_subset_length(ptr noundef %3, i32 noundef %18, i32 noundef %39)
  %41 = call i32 %9(i1 noundef zeroext true, ptr noundef %40, i32 noundef 0, ptr noundef %1, ptr noundef %2, i32 noundef %5)
  %42 = load i32, ptr %13, align 4
  %43 = add i32 %42, %18
  br label %46

44:                                               ; preds = %35
  %45 = call i32 %9(i1 noundef zeroext false, ptr noundef %3, i32 noundef %18, ptr noundef %1, ptr noundef %2, i32 noundef %5)
  br label %46

46:                                               ; preds = %36, %44, %14
  %.0 = phi i32 [ %15, %14 ], [ %43, %36 ], [ %45, %44 ]
  call void @llvm.lifetime.end.p0(i64 4, ptr nonnull %13) #14
  call void @llvm.lifetime.end.p0(i64 4, ptr nonnull %12) #14
  call void @llvm.lifetime.end.p0(i64 1, ptr nonnull %11) #14
  ret i32 %.0
}